target datalayout = "e-m:e-p270:32:32-p271:32:32-p272:64:64-i64:64-i128:128-f80:128-n8:16:32:64-S128"
target triple = "x86_64-unknown-linux-gnu"

%"class.zmq::stream_connecter_base_t" = type { %"class.zmq::own_t.base", %"class.zmq::io_object_t", ptr, i32, ptr, %"class.std::__cxx11::basic_string", ptr, i8, i8, i32, ptr }
%"class.zmq::own_t.base" = type <{ %"class.zmq::object_t.base", [4 x i8], %"struct.zmq::options_t", i8, [7 x i8], %"class.zmq::atomic_counter_t", i64, ptr, %"class.std::set.28", i32 }>
%"class.zmq::object_t.base" = type <{ ptr, ptr, i32 }>
%"struct.zmq::options_t" = type { i32, i32, i64, i8, [256 x i8], i32, i32, i32, i32, i32, i32, i32, i32, i8, %"struct.zmq::atomic_value_t", i32, i32, i32, i32, i32, i32, i64, i32, i32, i8, i32, i8, i8, i8, i8, i8, %"class.std::__cxx11::basic_string", %"class.std::__cxx11::basic_string", %"class.std::__cxx11::basic_string", i32, i32, i32, i32, %"class.std::vector", %"class.std::set", %"class.std::set", %"class.std::set.6", i32, i32, %"class.std::__cxx11::basic_string", %"class.std::__cxx11::basic_string", %"class.std::__cxx11::basic_string", [32 x i8], [32 x i8], [32 x i8], %"class.std::__cxx11::basic_string", %"class.std::__cxx11::basic_string", i32, i32, i8, i32, i8, i32, i8, i16, i32, i32, i32, %"class.std::__cxx11::basic_string", i8, i8, i8, i32, i32, i8, i32, %"class.std::map", i32, %"class.std::__cxx11::basic_string", %"class.std::__cxx11::basic_string", %"class.std::__cxx11::basic_string", %"class.std::__cxx11::basic_string", i8, %"class.std::vector.21", i8, %"class.std::vector.21", i8, %"class.std::vector.21", i8, i32, i8, i32, i32, i32, i32, i32, i8, i32 }
%"struct.zmq::atomic_value_t" = type { %"struct.std::atomic" }
%"struct.std::atomic" = type { %"struct.std::__atomic_base" }
%"struct.std::__atomic_base" = type { i32 }
%"class.std::vector" = type { %"struct.std::_Vector_base" }
%"struct.std::_Vector_base" = type { %"struct.std::_Vector_base<zmq::tcp_address_mask_t, std::allocator<zmq::tcp_address_mask_t>>::_Vector_impl" }
%"struct.std::_Vector_base<zmq::tcp_address_mask_t, std::allocator<zmq::tcp_address_mask_t>>::_Vector_impl" = type { %"struct.std::_Vector_base<zmq::tcp_address_mask_t, std::allocator<zmq::tcp_address_mask_t>>::_Vector_impl_data" }
%"struct.std::_Vector_base<zmq::tcp_address_mask_t, std::allocator<zmq::tcp_address_mask_t>>::_Vector_impl_data" = type { ptr, ptr, ptr }
%"class.std::set" = type { %"class.std::_Rb_tree" }
%"class.std::_Rb_tree" = type { %"struct.std::_Rb_tree<unsigned int, unsigned int, std::_Identity<unsigned int>, std::less<unsigned int>>::_Rb_tree_impl" }
%"struct.std::_Rb_tree<unsigned int, unsigned int, std::_Identity<unsigned int>, std::less<unsigned int>>::_Rb_tree_impl" = type { %"struct.std::_Rb_tree_key_compare", %"struct.std::_Rb_tree_header" }
%"struct.std::_Rb_tree_key_compare" = type { %"struct.std::less" }
%"struct.std::less" = type { i8 }
%"struct.std::_Rb_tree_header" = type { %"struct.std::_Rb_tree_node_base", i64 }
%"struct.std::_Rb_tree_node_base" = type { i32, ptr, ptr, ptr }
%"class.std::set.6" = type { %"class.std::_Rb_tree.7" }
%"class.std::_Rb_tree.7" = type { %"struct.std::_Rb_tree<int, int, std::_Identity<int>, std::less<int>>::_Rb_tree_impl" }
%"struct.std::_Rb_tree<int, int, std::_Identity<int>, std::less<int>>::_Rb_tree_impl" = type { %"struct.std::_Rb_tree_key_compare.11", %"struct.std::_Rb_tree_header" }
%"struct.std::_Rb_tree_key_compare.11" = type { %"struct.std::less.12" }
%"struct.std::less.12" = type { i8 }
%"class.std::map" = type { %"class.std::_Rb_tree.14" }
%"class.std::_Rb_tree.14" = type { %"struct.std::_Rb_tree<std::__cxx11::basic_string<char>, std::pair<const std::__cxx11::basic_string<char>, std::__cxx11::basic_string<char>>, std::_Select1st<std::pair<const std::__cxx11::basic_string<char>, std::__cxx11::basic_string<char>>>, std::less<std::__cxx11::basic_string<char>>>::_Rb_tree_impl" }
%"struct.std::_Rb_tree<std::__cxx11::basic_string<char>, std::pair<const std::__cxx11::basic_string<char>, std::__cxx11::basic_string<char>>, std::_Select1st<std::pair<const std::__cxx11::basic_string<char>, std::__cxx11::basic_string<char>>>, std::less<std::__cxx11::basic_string<char>>>::_Rb_tree_impl" = type { %"struct.std::_Rb_tree_key_compare.18", %"struct.std::_Rb_tree_header" }
%"struct.std::_Rb_tree_key_compare.18" = type { %"struct.std::less.19" }
%"struct.std::less.19" = type { i8 }
%"class.std::vector.21" = type { %"struct.std::_Vector_base.22" }
%"struct.std::_Vector_base.22" = type { %"struct.std::_Vector_base<unsigned char, std::allocator<unsigned char>>::_Vector_impl" }
%"struct.std::_Vector_base<unsigned char, std::allocator<unsigned char>>::_Vector_impl" = type { %"struct.std::_Vector_base<unsigned char, std::allocator<unsigned char>>::_Vector_impl_data" }
%"struct.std::_Vector_base<unsigned char, std::allocator<unsigned char>>::_Vector_impl_data" = type { ptr, ptr, ptr }
%"class.zmq::atomic_counter_t" = type { %"struct.std::atomic.26", [4 x i8] }
%"struct.std::atomic.26" = type { %"struct.std::__atomic_base.27" }
%"struct.std::__atomic_base.27" = type { i32 }
%"class.std::set.28" = type { %"class.std::_Rb_tree.29" }
%"class.std::_Rb_tree.29" = type { %"struct.std::_Rb_tree<zmq::own_t *, zmq::own_t *, std::_Identity<zmq::own_t *>, std::less<zmq::own_t *>>::_Rb_tree_impl" }
%"struct.std::_Rb_tree<zmq::own_t *, zmq::own_t *, std::_Identity<zmq::own_t *>, std::less<zmq::own_t *>>::_Rb_tree_impl" = type { %"struct.std::_Rb_tree_key_compare.33", %"struct.std::_Rb_tree_header" }
%"struct.std::_Rb_tree_key_compare.33" = type { %"struct.std::less.34" }
%"struct.std::less.34" = type { i8 }
%"class.zmq::io_object_t" = type { %"struct.zmq::i_poll_events", ptr }
%"struct.zmq::i_poll_events" = type { ptr }
%"class.std::__cxx11::basic_string" = type { %"struct.std::__cxx11::basic_string<char>::_Alloc_hider", i64, %union.anon }
%"struct.std::__cxx11::basic_string<char>::_Alloc_hider" = type { ptr }
%union.anon = type { i64, [8 x i8] }
%"struct.zmq::address_t" = type { %"class.std::__cxx11::basic_string", %"class.std::__cxx11::basic_string", ptr, %union.anon.36 }
%union.anon.36 = type { ptr }

@stderr = external global ptr, align 8
@.str = private unnamed_addr constant [30 x i8] c"Assertion failed: %s (%s:%d)\0A\00", align 1
@.str.2 = private unnamed_addr constant [113 x i8] c"generated/home/dtcxzyw/WorkSpace/Projects/compilers/llvm-opt-benchmark/bench/libzmq/libzmq/src/ipc_connecter.cpp\00", align 1
@.str.3 = private unnamed_addr constant [17 x i8] c"_s == retired_fd\00", align 1

; Function Attrs: mustprogress uwtable
define noundef i32 @_ZN3zmq15ipc_connecter_t4openEv(ptr noundef nonnull align 8 dereferenceable(1544) %this) #0 align 2 {
entry:
  %retval = alloca i32, align 4
  %this.addr = alloca ptr, align 8
  %rc = alloca i32, align 4
  store ptr %this, ptr %this.addr, align 8
  %this1 = load ptr, ptr %this.addr, align 8
  br label %do.body

do.body:                                          ; preds = %entry
  %_s = getelementptr inbounds %"class.zmq::stream_connecter_base_t", ptr %this1, i32 0, i32 3
  %0 = load i32, ptr %_s, align 8
  %cmp = icmp eq i32 %0, -1
  %lnot = xor i1 %cmp, true
  br i1 %lnot, label %if.then, label %if.end

if.then:                                          ; preds = %do.body
  %1 = load ptr, ptr @stderr, align 8
  %call = call i32 (ptr, ptr, ...) @fprintf(ptr noundef %1, ptr noundef @.str, ptr noundef @.str.3, ptr noundef @.str.2, i32 noundef 94)
  %2 = load ptr, ptr @stderr, align 8
  %call2 = call i32 @fflush(ptr noundef %2)
  call void @_ZN3zmq9zmq_abortEPKc(ptr noundef @.str.3)
  br label %if.end

if.end:                                           ; preds = %if.then, %do.body
  br label %do.end

do.end:                                           ; preds = %if.end
  %call3 = call noundef i32 @_ZN3zmq11open_socketEiii(i32 noundef 1, i32 noundef 1, i32 noundef 0)
  %_s4 = getelementptr inbounds %"class.zmq::stream_connecter_base_t", ptr %this1, i32 0, i32 3
  store i32 %call3, ptr %_s4, align 8
  %_s5 = getelementptr inbounds %"class.zmq::stream_connecter_base_t", ptr %this1, i32 0, i32 3
  %3 = load i32, ptr %_s5, align 8
  %cmp6 = icmp eq i32 %3, -1
  br i1 %cmp6, label %if.then7, label %if.end8

if.then7:                                         ; preds = %do.end
  store i32 -1, ptr %retval, align 4
  br label %return

if.end8:                                          ; preds = %do.end
  %_s9 = getelementptr inbounds %"class.zmq::stream_connecter_base_t", ptr %this1, i32 0, i32 3
  %4 = load i32, ptr %_s9, align 8
  call void @_ZN3zmq14unblock_socketEi(i32 noundef %4)
  %_s10 = getelementptr inbounds %"class.zmq::stream_connecter_base_t", ptr %this1, i32 0, i32 3
  %5 = load i32, ptr %_s10, align 8
  %_addr = getelementptr inbounds %"class.zmq::stream_connecter_base_t", ptr %this1, i32 0, i32 2
  %6 = load ptr, ptr %_addr, align 8
  %resolved = getelementptr inbounds %"struct.zmq::address_t", ptr %6, i32 0, i32 3
  %7 = load ptr, ptr %resolved, align 8
  %call11 = call noundef ptr @_ZNK3zmq13ipc_address_t4addrEv(ptr noundef nonnull align 4 dereferenceable(116) %7)
  %_addr12 = getelementptr inbounds %"class.zmq::stream_connecter_base_t", ptr %this1, i32 0, i32 2
  %8 = load ptr, ptr %_addr12, align 8
  %resolved13 = getelementptr inbounds %"struct.zmq::address_t", ptr %8, i32 0, i32 3
  %9 = load ptr, ptr %resolved13, align 8
  %call14 = call noundef i32 @_ZNK3zmq13ipc_address_t7addrlenEv(ptr noundef nonnull align 4 dereferenceable(116) %9)
  %call15 = call i32 @connect(i32 noundef %5, ptr noundef %call11, i32 noundef %call14)
  store i32 %call15, ptr %rc, align 4
  %10 = load i32, ptr %rc, align 4
  %cmp16 = icmp eq i32 %10, 0
  br i1 %cmp16, label %if.then17, label %if.end18

if.then17:                                        ; preds = %if.end8
  store i32 0, ptr %retval, align 4
  br label %return

if.end18:                                         ; preds = %if.end8
  %11 = load i32, ptr %rc, align 4
  %cmp19 = icmp eq i32 %11, -1
  br i1 %cmp19, label %land.lhs.true, label %if.end24

land.lhs.true:                                    ; preds = %if.end18
  %call20 = call ptr @__errno_location() #9
  %12 = load i32, ptr %call20, align 4
  %cmp21 = icmp eq i32 %12, 4
  br i1 %cmp21, label %if.then22, label %if.end24

if.then22:                                        ; preds = %land.lhs.true
  %call23 = call ptr @__errno_location() #9
  store i32 115, ptr %call23, align 4
  br label %if.end24

if.end24:                                         ; preds = %if.then22, %land.lhs.true, %if.end18
  store i32 -1, ptr %retval, align 4
  br label %return

return:                                           ; preds = %if.end24, %if.then17, %if.then7
  %13 = load i32, ptr %retval, align 4
  ret i32 %13
}