; Function Attrs: mustprogress uwtable
define noundef i32 @_ZN3zmq15ipc_connecter_t4openEv(ptr nocapture noundef nonnull align 8 dereferenceable(1544) %this) local_unnamed_addr #0 align 2 {
entry:
  %_s = getelementptr inbounds i8, ptr %this, i64 1472
  %0 = load i32, ptr %_s, align 8
  %cmp.not = icmp eq i32 %0, -1
  br i1 %cmp.not, label %do.end, label %if.then

if.then:                                          ; preds = %entry
  %1 = load ptr, ptr @stderr, align 8
  %call = tail call i32 (ptr, ptr, ...) @fprintf(ptr noundef %1, ptr noundef nonnull @.str, ptr noundef nonnull @.str.3, ptr noundef nonnull @.str.2, i32 noundef 94) #10
  %2 = load ptr, ptr @stderr, align 8
  %call2 = tail call i32 @fflush(ptr noundef %2)
  tail call void @_ZN3zmq9zmq_abortEPKc(ptr noundef nonnull @.str.3)
  br label %do.end

do.end:                                           ; preds = %entry, %if.then
  %call3 = tail call noundef i32 @_ZN3zmq11open_socketEiii(i32 noundef 1, i32 noundef 1, i32 noundef 0)
  store i32 %call3, ptr %_s, align 8
  %cmp6 = icmp eq i32 %call3, -1
  br i1 %cmp6, label %return, label %if.end8

if.end8:                                          ; preds = %do.end
  tail call void @_ZN3zmq14unblock_socketEi(i32 noundef %call3)
  %3 = load i32, ptr %_s, align 8
  %_addr = getelementptr inbounds i8, ptr %this, i64 1464
  %4 = load ptr, ptr %_addr, align 8
  %resolved = getelementptr inbounds i8, ptr %4, i64 72
  %5 = load ptr, ptr %resolved, align 8
  %call11 = tail call noundef ptr @_ZNK3zmq13ipc_address_t4addrEv(ptr noundef nonnull align 4 dereferenceable(116) %5)
  %6 = load ptr, ptr %_addr, align 8
  %resolved13 = getelementptr inbounds i8, ptr %6, i64 72
  %7 = load ptr, ptr %resolved13, align 8
  %call14 = tail call noundef i32 @_ZNK3zmq13ipc_address_t7addrlenEv(ptr noundef nonnull align 4 dereferenceable(116) %7)
  %call15 = tail call i32 @connect(i32 noundef %3, ptr noundef %call11, i32 noundef %call14)
  switch i32 %call15, label %if.end24 [
    i32 0, label %return
    i32 -1, label %land.lhs.true
  ]

land.lhs.true:                                    ; preds = %if.end8
  %call20 = tail call ptr @__errno_location() #11
  %8 = load i32, ptr %call20, align 4
  %cmp21 = icmp eq i32 %8, 4
  br i1 %cmp21, label %if.then22, label %if.end24

if.then22:                                        ; preds = %land.lhs.true
  store i32 115, ptr %call20, align 4
  br label %if.end24

if.end24:                                         ; preds = %if.end8, %if.then22, %land.lhs.true
  br label %return

return:                                           ; preds = %if.end8, %do.end, %if.end24
  %retval.0 = phi i32 [ -1, %if.end24 ], [ -1, %do.end ], [ %call15, %if.end8 ]
  ret i32 %retval.0
}